target datalayout = "e-m:e-p270:32:32-p271:32:32-p272:64:64-i64:64-i128:128-f80:128-n8:16:32:64-S128"
target triple = "x86_64-unknown-linux-gnu"

%"class.icu_75::CollationElementIterator" = type { %"class.icu_75::UObject", ptr, ptr, i32, i8, ptr, %"class.icu_75::UnicodeString" }
%"class.icu_75::UObject" = type { ptr }
%"class.icu_75::UnicodeString" = type { %"class.icu_75::Replaceable", %"union.icu_75::UnicodeString::StackBufferOrFields" }
%"class.icu_75::Replaceable" = type { %"class.icu_75::UObject" }
%"union.icu_75::UnicodeString::StackBufferOrFields" = type { %struct.anon.0, [32 x i8] }
%struct.anon.0 = type { i16, i32, i32, ptr }
%struct.anon = type { i16, [27 x i16] }

; Function Attrs: mustprogress nounwind uwtable
define linkonce_odr noundef ptr @_ZNK6icu_7513UnicodeString13getArrayStartEv(ptr noundef nonnull align 8 dereferenceable(64) %this) #0 comdat align 2 {
entry:
  %this.addr = alloca ptr, align 8
  store ptr %this, ptr %this.addr, align 8
  %this1 = load ptr, ptr %this.addr, align 8
  %fUnion = getelementptr inbounds %"class.icu_75::UnicodeString", ptr %this1, i32 0, i32 1
  %fLengthAndFlags = getelementptr inbounds %struct.anon.0, ptr %fUnion, i32 0, i32 0
  %0 = load i16, ptr %fLengthAndFlags, align 8
  %conv = sext i16 %0 to i32
  %and = and i32 %conv, 2
  %tobool = icmp ne i32 %and, 0
  br i1 %tobool, label %cond.true, label %cond.false

cond.true:                                        ; preds = %entry
  %fUnion2 = getelementptr inbounds %"class.icu_75::UnicodeString", ptr %this1, i32 0, i32 1
  %fBuffer = getelementptr inbounds %struct.anon, ptr %fUnion2, i32 0, i32 1
  %arraydecay = getelementptr inbounds [27 x i16], ptr %fBuffer, i64 0, i64 0
  br label %cond.end

cond.false:                                       ; preds = %entry
  %fUnion3 = getelementptr inbounds %"class.icu_75::UnicodeString", ptr %this1, i32 0, i32 1
  %fArray = getelementptr inbounds %struct.anon.0, ptr %fUnion3, i32 0, i32 3
  %1 = load ptr, ptr %fArray, align 8
  br label %cond.end

cond.end:                                         ; preds = %cond.false, %cond.true
  %cond = phi ptr [ %arraydecay, %cond.true ], [ %1, %cond.false ]
  ret ptr %cond
}

; Function Attrs: mustprogress uwtable
define linkonce_odr noundef zeroext i16 @_ZNK6icu_7513UnicodeString8doCharAtEi(ptr noundef nonnull align 8 dereferenceable(64) %this, i32 noundef %offset) #1 comdat align 2 {
entry:
  %retval = alloca i16, align 2
  %this.addr = alloca ptr, align 8
  %offset.addr = alloca i32, align 4
  store ptr %this, ptr %this.addr, align 8
  store i32 %offset, ptr %offset.addr, align 4
  %this1 = load ptr, ptr %this.addr, align 8
  %0 = load i32, ptr %offset.addr, align 4
  %call = call noundef i32 @_ZNK6icu_7513UnicodeString6lengthEv(ptr noundef nonnull align 8 dereferenceable(64) %this1)
  %cmp = icmp ult i32 %0, %call
  br i1 %cmp, label %if.then, label %if.else

if.then:                                          ; preds = %entry
  %call2 = call noundef ptr @_ZNK6icu_7513UnicodeString13getArrayStartEv(ptr noundef nonnull align 8 dereferenceable(64) %this1)
  %1 = load i32, ptr %offset.addr, align 4
  %idxprom = sext i32 %1 to i64
  %arrayidx = getelementptr inbounds i16, ptr %call2, i64 %idxprom
  %2 = load i16, ptr %arrayidx, align 2
  store i16 %2, ptr %retval, align 2
  br label %return

if.else:                                          ; preds = %entry
  store i16 -1, ptr %retval, align 2
  br label %return

return:                                           ; preds = %if.else, %if.then
  %3 = load i16, ptr %retval, align 2
  ret i16 %3
}

; Function Attrs: mustprogress nounwind uwtable
define linkonce_odr noundef i32 @_ZNK6icu_7513UnicodeString14getShortLengthEv(ptr noundef nonnull align 8 dereferenceable(64) %this) #0 comdat align 2 {
entry:
  %this.addr = alloca ptr, align 8
  store ptr %this, ptr %this.addr, align 8
  %this1 = load ptr, ptr %this.addr, align 8
  %fUnion = getelementptr inbounds %"class.icu_75::UnicodeString", ptr %this1, i32 0, i32 1
  %fLengthAndFlags = getelementptr inbounds %struct.anon.0, ptr %fUnion, i32 0, i32 0
  %0 = load i16, ptr %fLengthAndFlags, align 8
  %conv = sext i16 %0 to i32
  %shr = ashr i32 %conv, 5
  ret i32 %shr
}

; Function Attrs: mustprogress nounwind uwtable
define linkonce_odr noundef signext i8 @_ZNK6icu_7513UnicodeString14hasShortLengthEv(ptr noundef nonnull align 8 dereferenceable(64) %this) #0 comdat align 2 {
entry:
  %this.addr = alloca ptr, align 8
  store ptr %this, ptr %this.addr, align 8
  %this1 = load ptr, ptr %this.addr, align 8
  %fUnion = getelementptr inbounds %"class.icu_75::UnicodeString", ptr %this1, i32 0, i32 1
  %fLengthAndFlags = getelementptr inbounds %struct.anon.0, ptr %fUnion, i32 0, i32 0
  %0 = load i16, ptr %fLengthAndFlags, align 8
  %conv = sext i16 %0 to i32
  %cmp = icmp sge i32 %conv, 0
  %conv2 = zext i1 %cmp to i8
  ret i8 %conv2
}

; Function Attrs: mustprogress uwtable
define linkonce_odr noundef zeroext i16 @_ZNK6icu_7513UnicodeString6charAtEi(ptr noundef nonnull align 8 dereferenceable(64) %this, i32 noundef %offset) #1 comdat align 2 {
entry:
  %this.addr = alloca ptr, align 8
  %offset.addr = alloca i32, align 4
  store ptr %this, ptr %this.addr, align 8
  store i32 %offset, ptr %offset.addr, align 4
  %this1 = load ptr, ptr %this.addr, align 8
  %0 = load i32, ptr %offset.addr, align 4
  %call = call noundef zeroext i16 @_ZNK6icu_7513UnicodeString8doCharAtEi(ptr noundef nonnull align 8 dereferenceable(64) %this1, i32 noundef %0)
  ret i16 %call
}

; Function Attrs: mustprogress uwtable
define linkonce_odr noundef i32 @_ZNK6icu_7513UnicodeString6lengthEv(ptr noundef nonnull align 8 dereferenceable(64) %this) #1 comdat align 2 {
entry:
  %this.addr = alloca ptr, align 8
  store ptr %this, ptr %this.addr, align 8
  %this1 = load ptr, ptr %this.addr, align 8
  %call = call noundef signext i8 @_ZNK6icu_7513UnicodeString14hasShortLengthEv(ptr noundef nonnull align 8 dereferenceable(64) %this1)
  %tobool = icmp ne i8 %call, 0
  br i1 %tobool, label %cond.true, label %cond.false

cond.true:                                        ; preds = %entry
  %call2 = call noundef i32 @_ZNK6icu_7513UnicodeString14getShortLengthEv(ptr noundef nonnull align 8 dereferenceable(64) %this1)
  br label %cond.end

cond.false:                                       ; preds = %entry
  %fUnion = getelementptr inbounds %"class.icu_75::UnicodeString", ptr %this1, i32 0, i32 1
  %fLength = getelementptr inbounds %struct.anon.0, ptr %fUnion, i32 0, i32 1
  %0 = load i32, ptr %fLength, align 4
  br label %cond.end

cond.end:                                         ; preds = %cond.false, %cond.true
  %cond = phi i32 [ %call2, %cond.true ], [ %0, %cond.false ]
  ret i32 %cond
}

; Function Attrs: mustprogress nounwind uwtable
define internal noundef signext i8 @_ZL9U_FAILURE10UErrorCode(i32 noundef %code) #0 {
entry:
  %code.addr = alloca i32, align 4
  store i32 %code, ptr %code.addr, align 4
  %0 = load i32, ptr %code.addr, align 4
  %cmp = icmp sgt i32 %0, 0
  %conv = zext i1 %cmp to i8
  ret i8 %conv
}

; Function Attrs: mustprogress uwtable
define void @_ZN6icu_7524CollationElementIterator9setOffsetEiR10UErrorCode(ptr noundef nonnull align 8 dereferenceable(104) %this, i32 noundef %newOffset, ptr noundef nonnull align 4 dereferenceable(4) %status) #1 align 2 {
entry:
  %this.addr = alloca ptr, align 8
  %newOffset.addr = alloca i32, align 4
  %status.addr = alloca ptr, align 8
  %offset = alloca i32, align 4
  %c = alloca i16, align 2
  %lastSafeOffset = alloca i32, align 4
  store ptr %this, ptr %this.addr, align 8
  store i32 %newOffset, ptr %newOffset.addr, align 4
  store ptr %status, ptr %status.addr, align 8
  %this1 = load ptr, ptr %this.addr, align 8
  %0 = load ptr, ptr %status.addr, align 8
  %1 = load i32, ptr %0, align 4
  %call = call noundef signext i8 @_ZL9U_FAILURE10UErrorCode(i32 noundef %1)
  %tobool = icmp ne i8 %call, 0
  br i1 %tobool, label %if.then, label %if.end

if.then:                                          ; preds = %entry
  br label %return

if.end:                                           ; preds = %entry
  %2 = load i32, ptr %newOffset.addr, align 4
  %cmp = icmp slt i32 0, %2
  br i1 %cmp, label %land.lhs.true, label %if.end44

land.lhs.true:                                    ; preds = %if.end
  %3 = load i32, ptr %newOffset.addr, align 4
  %string_ = getelementptr inbounds %"class.icu_75::CollationElementIterator", ptr %this1, i32 0, i32 6
  %call2 = call noundef i32 @_ZNK6icu_7513UnicodeString6lengthEv(ptr noundef nonnull align 8 dereferenceable(64) %string_)
  %cmp3 = icmp slt i32 %3, %call2
  br i1 %cmp3, label %if.then4, label %if.end44

if.then4:                                         ; preds = %land.lhs.true
  %4 = load i32, ptr %newOffset.addr, align 4
  store i32 %4, ptr %offset, align 4
  br label %do.body

do.body:                                          ; preds = %do.cond, %if.then4
  %string_5 = getelementptr inbounds %"class.icu_75::CollationElementIterator", ptr %this1, i32 0, i32 6
  %5 = load i32, ptr %offset, align 4
  %call6 = call noundef zeroext i16 @_ZNK6icu_7513UnicodeString6charAtEi(ptr noundef nonnull align 8 dereferenceable(64) %string_5, i32 noundef %5)
  store i16 %call6, ptr %c, align 2
  %rbc_ = getelementptr inbounds %"class.icu_75::CollationElementIterator", ptr %this1, i32 0, i32 2
  %6 = load ptr, ptr %rbc_, align 8
  %7 = load i16, ptr %c, align 2
  %conv = zext i16 %7 to i32
  %call7 = call noundef signext i8 @_ZNK6icu_7517RuleBasedCollator8isUnsafeEi(ptr noundef nonnull align 8 dereferenceable(272) %6, i32 noundef %conv)
  %tobool8 = icmp ne i8 %call7, 0
  br i1 %tobool8, label %lor.lhs.false, label %if.then17

lor.lhs.false:                                    ; preds = %do.body
  %8 = load i16, ptr %c, align 2
  %conv9 = zext i16 %8 to i32
  %and = and i32 %conv9, -1024
  %cmp10 = icmp eq i32 %and, 55296
  br i1 %cmp10, label %land.lhs.true11, label %if.end18

land.lhs.true11:                                  ; preds = %lor.lhs.false
  %rbc_12 = getelementptr inbounds %"class.icu_75::CollationElementIterator", ptr %this1, i32 0, i32 2
  %9 = load ptr, ptr %rbc_12, align 8
  %string_13 = getelementptr inbounds %"class.icu_75::CollationElementIterator", ptr %this1, i32 0, i32 6
  %10 = load i32, ptr %offset, align 4
  %call14 = call noundef i32 @_ZNK6icu_7513UnicodeString8char32AtEi(ptr noundef nonnull align 8 dereferenceable(64) %string_13, i32 noundef %10)
  %call15 = call noundef signext i8 @_ZNK6icu_7517RuleBasedCollator8isUnsafeEi(ptr noundef nonnull align 8 dereferenceable(272) %9, i32 noundef %call14)
  %tobool16 = icmp ne i8 %call15, 0
  br i1 %tobool16, label %if.end18, label %if.then17

if.then17:                                        ; preds = %land.lhs.true11, %do.body
  br label %do.end

if.end18:                                         ; preds = %land.lhs.true11, %lor.lhs.false
  %11 = load i32, ptr %offset, align 4
  %dec = add nsw i32 %11, -1
  store i32 %dec, ptr %offset, align 4
  br label %do.cond

do.cond:                                          ; preds = %if.end18
  %12 = load i32, ptr %offset, align 4
  %cmp19 = icmp sgt i32 %12, 0
  br i1 %cmp19, label %do.body, label %do.end, !llvm.loop !4

do.end:                                           ; preds = %do.cond, %if.then17
  %13 = load i32, ptr %offset, align 4
  %14 = load i32, ptr %newOffset.addr, align 4
  %cmp20 = icmp slt i32 %13, %14
  br i1 %cmp20, label %if.then21, label %if.end43

if.then21:                                        ; preds = %do.end
  %15 = load i32, ptr %offset, align 4
  store i32 %15, ptr %lastSafeOffset, align 4
  br label %do.body22

do.body22:                                        ; preds = %do.cond40, %if.then21
  %iter_ = getelementptr inbounds %"class.icu_75::CollationElementIterator", ptr %this1, i32 0, i32 1
  %16 = load ptr, ptr %iter_, align 8
  %17 = load i32, ptr %lastSafeOffset, align 4
  %vtable = load ptr, ptr %16, align 8
  %vfn = getelementptr inbounds ptr, ptr %vtable, i64 4
  %18 = load ptr, ptr %vfn, align 8
  call void %18(ptr noundef nonnull align 8 dereferenceable(389) %16, i32 noundef %17)
  br label %do.body23

do.body23:                                        ; preds = %do.cond30, %do.body22
  %iter_24 = getelementptr inbounds %"class.icu_75::CollationElementIterator", ptr %this1, i32 0, i32 1
  %19 = load ptr, ptr %iter_24, align 8
  %20 = load ptr, ptr %status.addr, align 8
  %call25 = call noundef i64 @_ZN6icu_7517CollationIterator6nextCEER10UErrorCode(ptr noundef nonnull align 8 dereferenceable(389) %19, ptr noundef nonnull align 4 dereferenceable(4) %20)
  %21 = load ptr, ptr %status.addr, align 8
  %22 = load i32, ptr %21, align 4
  %call26 = call noundef signext i8 @_ZL9U_FAILURE10UErrorCode(i32 noundef %22)
  %tobool27 = icmp ne i8 %call26, 0
  br i1 %tobool27, label %if.then28, label %if.end29

if.then28:                                        ; preds = %do.body23
  br label %return

if.end29:                                         ; preds = %do.body23
  br label %do.cond30

do.cond30:                                        ; preds = %if.end29
  %iter_31 = getelementptr inbounds %"class.icu_75::CollationElementIterator", ptr %this1, i32 0, i32 1
  %23 = load ptr, ptr %iter_31, align 8
  %vtable32 = load ptr, ptr %23, align 8
  %vfn33 = getelementptr inbounds ptr, ptr %vtable32, i64 5
  %24 = load ptr, ptr %vfn33, align 8
  %call34 = call noundef i32 %24(ptr noundef nonnull align 8 dereferenceable(389) %23)
  store i32 %call34, ptr %offset, align 4
  %25 = load i32, ptr %lastSafeOffset, align 4
  %cmp35 = icmp eq i32 %call34, %25
  br i1 %cmp35, label %do.body23, label %do.end36, !llvm.loop !6

do.end36:                                         ; preds = %do.cond30
  %26 = load i32, ptr %offset, align 4
  %27 = load i32, ptr %newOffset.addr, align 4
  %cmp37 = icmp sle i32 %26, %27
  br i1 %cmp37, label %if.then38, label %if.end39

if.then38:                                        ; preds = %do.end36
  %28 = load i32, ptr %offset, align 4
  store i32 %28, ptr %lastSafeOffset, align 4
  br label %if.end39

if.end39:                                         ; preds = %if.then38, %do.end36
  br label %do.cond40

do.cond40:                                        ; preds = %if.end39
  %29 = load i32, ptr %offset, align 4
  %30 = load i32, ptr %newOffset.addr, align 4
  %cmp41 = icmp slt i32 %29, %30
  br i1 %cmp41, label %do.body22, label %do.end42, !llvm.loop !7

do.end42:                                         ; preds = %do.cond40
  %31 = load i32, ptr %lastSafeOffset, align 4
  store i32 %31, ptr %newOffset.addr, align 4
  br label %if.end43

if.end43:                                         ; preds = %do.end42, %do.end
  br label %if.end44

if.end44:                                         ; preds = %if.end43, %land.lhs.true, %if.end
  %iter_45 = getelementptr inbounds %"class.icu_75::CollationElementIterator", ptr %this1, i32 0, i32 1
  %32 = load ptr, ptr %iter_45, align 8
  %33 = load i32, ptr %newOffset.addr, align 4
  %vtable46 = load ptr, ptr %32, align 8
  %vfn47 = getelementptr inbounds ptr, ptr %vtable46, i64 4
  %34 = load ptr, ptr %vfn47, align 8
  call void %34(ptr noundef nonnull align 8 dereferenceable(389) %32, i32 noundef %33)
  %otherHalf_ = getelementptr inbounds %"class.icu_75::CollationElementIterator", ptr %this1, i32 0, i32 3
  store i32 0, ptr %otherHalf_, align 8
  %dir_ = getelementptr inbounds %"class.icu_75::CollationElementIterator", ptr %this1, i32 0, i32 4
  store i8 1, ptr %dir_, align 4
  br label %return

return:                                           ; preds = %if.end44, %if.then28, %if.then
  ret void
}