; Function Attrs: mustprogress uwtable
define void @_ZN6icu_7524CollationElementIterator9setOffsetEiR10UErrorCode(ptr noundef nonnull align 8 dereferenceable(104) %this, i32 noundef %newOffset, ptr noundef nonnull align 4 dereferenceable(4) %status) local_unnamed_addr #1 align 2 {
entry:
  %0 = load i32, ptr %status, align 4
  %cmp.i = icmp slt i32 %0, 1
  br i1 %cmp.i, label %if.end, label %return

if.end:                                           ; preds = %entry
  %cmp = icmp sgt i32 %newOffset, 0
  br i1 %cmp, label %land.lhs.true, label %if.end44

land.lhs.true:                                    ; preds = %if.end
  %string_ = getelementptr inbounds i8, ptr %this, i64 40
  %fUnion.i.i = getelementptr inbounds i8, ptr %this, i64 48
  %1 = load i16, ptr %fUnion.i.i, align 8
  %cmp.i.i = icmp slt i16 %1, 0
  %2 = ashr i16 %1, 5
  %shr.i.i = sext i16 %2 to i32
  %fLength.i = getelementptr inbounds i8, ptr %this, i64 52
  %3 = load i32, ptr %fLength.i, align 4
  %cond.i = select i1 %cmp.i.i, i32 %3, i32 %shr.i.i
  %cmp3 = icmp sgt i32 %cond.i, %newOffset
  br i1 %cmp3, label %do.body.preheader, label %if.end44

do.body.preheader:                                ; preds = %land.lhs.true
  %rbc_ = getelementptr inbounds i8, ptr %this, i64 16
  %fBuffer.i.i.i = getelementptr inbounds i8, ptr %this, i64 50
  %fArray.i.i.i = getelementptr inbounds i8, ptr %this, i64 64
  %4 = zext nneg i32 %newOffset to i64
  br label %do.body

do.body:                                          ; preds = %do.body.preheader, %if.end18
  %indvars.iv = phi i64 [ %4, %do.body.preheader ], [ %indvars.iv.next, %if.end18 ]
  %5 = load i16, ptr %fUnion.i.i, align 8
  %cmp.i.i.i.i = icmp slt i16 %5, 0
  %6 = ashr i16 %5, 5
  %shr.i.i.i.i = sext i16 %6 to i32
  %7 = load i32, ptr %fLength.i, align 4
  %cond.i.i.i = select i1 %cmp.i.i.i.i, i32 %7, i32 %shr.i.i.i.i
  %8 = zext i32 %cond.i.i.i to i64
  %cmp.i.i20 = icmp ult i64 %indvars.iv, %8
  br i1 %cmp.i.i20, label %if.then.i.i, label %_ZNK6icu_7513UnicodeString6charAtEi.exit

if.then.i.i:                                      ; preds = %do.body
  %9 = and i16 %5, 2
  %tobool.not.i.i.i = icmp eq i16 %9, 0
  %10 = load ptr, ptr %fArray.i.i.i, align 8
  %cond.i2.i.i = select i1 %tobool.not.i.i.i, ptr %10, ptr %fBuffer.i.i.i
  %arrayidx.i.i = getelementptr inbounds i16, ptr %cond.i2.i.i, i64 %indvars.iv
  %11 = load i16, ptr %arrayidx.i.i, align 2
  br label %_ZNK6icu_7513UnicodeString6charAtEi.exit

_ZNK6icu_7513UnicodeString6charAtEi.exit:         ; preds = %do.body, %if.then.i.i
  %retval.0.i.i = phi i16 [ %11, %if.then.i.i ], [ -1, %do.body ]
  %12 = load ptr, ptr %rbc_, align 8
  %conv = zext i16 %retval.0.i.i to i32
  %call7 = tail call noundef signext i8 @_ZNK6icu_7517RuleBasedCollator8isUnsafeEi(ptr noundef nonnull align 8 dereferenceable(272) %12, i32 noundef %conv)
  %tobool8.not = icmp eq i8 %call7, 0
  %13 = trunc i64 %indvars.iv to i32
  br i1 %tobool8.not, label %do.end, label %lor.lhs.false

lor.lhs.false:                                    ; preds = %_ZNK6icu_7513UnicodeString6charAtEi.exit
  %and = and i32 %conv, 64512
  %cmp10 = icmp eq i32 %and, 55296
  br i1 %cmp10, label %land.lhs.true11, label %if.end18

land.lhs.true11:                                  ; preds = %lor.lhs.false
  %14 = load ptr, ptr %rbc_, align 8
  %call14 = tail call noundef i32 @_ZNK6icu_7513UnicodeString8char32AtEi(ptr noundef nonnull align 8 dereferenceable(64) %string_, i32 noundef %13)
  %call15 = tail call noundef signext i8 @_ZNK6icu_7517RuleBasedCollator8isUnsafeEi(ptr noundef nonnull align 8 dereferenceable(272) %14, i32 noundef %call14)
  %tobool16.not = icmp eq i8 %call15, 0
  br i1 %tobool16.not, label %do.end, label %if.end18

if.end18:                                         ; preds = %land.lhs.true11, %lor.lhs.false
  %indvars.iv.next = add nsw i64 %indvars.iv, -1
  %cmp19 = icmp sgt i64 %indvars.iv, 1
  br i1 %cmp19, label %do.body, label %do.end, !llvm.loop !4

do.end:                                           ; preds = %_ZNK6icu_7513UnicodeString6charAtEi.exit, %land.lhs.true11, %if.end18
  %offset.1 = phi i32 [ 0, %if.end18 ], [ %13, %land.lhs.true11 ], [ %13, %_ZNK6icu_7513UnicodeString6charAtEi.exit ]
  %cmp20 = icmp slt i32 %offset.1, %newOffset
  br i1 %cmp20, label %do.body22.preheader, label %if.end44

do.body22.preheader:                              ; preds = %do.end
  %iter_ = getelementptr inbounds i8, ptr %this, i64 8
  br label %do.body22

do.body22:                                        ; preds = %do.body22.preheader, %do.end36
  %lastSafeOffset.0 = phi i32 [ %spec.select, %do.end36 ], [ %offset.1, %do.body22.preheader ]
  %15 = load ptr, ptr %iter_, align 8
  %vtable = load ptr, ptr %15, align 8
  %vfn = getelementptr inbounds i8, ptr %vtable, i64 32
  %16 = load ptr, ptr %vfn, align 8
  tail call void %16(ptr noundef nonnull align 8 dereferenceable(389) %15, i32 noundef %lastSafeOffset.0)
  br label %do.body23

do.body23:                                        ; preds = %do.cond30, %do.body22
  %17 = load ptr, ptr %iter_, align 8
  %call25 = tail call noundef i64 @_ZN6icu_7517CollationIterator6nextCEER10UErrorCode(ptr noundef nonnull align 8 dereferenceable(389) %17, ptr noundef nonnull align 4 dereferenceable(4) %status)
  %18 = load i32, ptr %status, align 4
  %cmp.i21 = icmp slt i32 %18, 1
  br i1 %cmp.i21, label %do.cond30, label %return

do.cond30:                                        ; preds = %do.body23
  %19 = load ptr, ptr %iter_, align 8
  %vtable32 = load ptr, ptr %19, align 8
  %vfn33 = getelementptr inbounds i8, ptr %vtable32, i64 40
  %20 = load ptr, ptr %vfn33, align 8
  %call34 = tail call noundef i32 %20(ptr noundef nonnull align 8 dereferenceable(389) %19)
  %cmp35 = icmp eq i32 %call34, %lastSafeOffset.0
  br i1 %cmp35, label %do.body23, label %do.end36, !llvm.loop !6

do.end36:                                         ; preds = %do.cond30
  %cmp37.not = icmp sgt i32 %call34, %newOffset
  %spec.select = select i1 %cmp37.not, i32 %lastSafeOffset.0, i32 %call34
  %cmp41 = icmp slt i32 %call34, %newOffset
  br i1 %cmp41, label %do.body22, label %if.end44, !llvm.loop !7

if.end44:                                         ; preds = %do.end36, %do.end, %land.lhs.true, %if.end
  %newOffset.addr.0 = phi i32 [ %newOffset, %do.end ], [ %newOffset, %land.lhs.true ], [ %newOffset, %if.end ], [ %spec.select, %do.end36 ]
  %iter_45 = getelementptr inbounds i8, ptr %this, i64 8
  %21 = load ptr, ptr %iter_45, align 8
  %vtable46 = load ptr, ptr %21, align 8
  %vfn47 = getelementptr inbounds i8, ptr %vtable46, i64 32
  %22 = load ptr, ptr %vfn47, align 8
  tail call void %22(ptr noundef nonnull align 8 dereferenceable(389) %21, i32 noundef %newOffset.addr.0)
  %otherHalf_ = getelementptr inbounds i8, ptr %this, i64 24
  store i32 0, ptr %otherHalf_, align 8
  %dir_ = getelementptr inbounds i8, ptr %this, i64 28
  store i8 1, ptr %dir_, align 4
  br label %return

return:                                           ; preds = %do.body23, %entry, %if.end44
  ret void
}